(dp1
S'OriginalConfig'
p2
ccopy_reg
_reconstructor
p3
(cWMCore.Configuration
Configuration
p4
c__builtin__
object
p5
NtRp6
(dp7
S'Site'
p8
g3
(cWMCore.Configuration
ConfigSection
p9
g5
NtRp10
(dp11
S'_internal_skipChecks'
p12
I00
sS'_internal_documentation'
p13
S''
sS'_internal_settings'
p14
c__builtin__
set
p15
((lp16
S'storageSite'
p17
atRp18
sS'_internal_name'
p19
g8
sS'_internal_docstrings'
p20
(dp21
sS'_internal_children'
p22
g15
((ltRp23
sg17
S'T2_IN_TIFR'
p24
sS'_internal_parent_ref'
p25
NsbsS'_internal_sections'
p26
(lp27
S'General'
p28
aS'JobType'
p29
aS'Data'
p30
ag8
aS'User'
p31
aS'Debug'
p32
asg28
g3
(g9
g5
NtRp33
(dp34
S'transferLogs'
p35
I01
sg12
I00
sg13
S''
sg14
g15
((lp36
g35
aS'transferOutputs'
p37
aS'workArea'
p38
aS'requestName'
p39
atRp40
sg19
g28
sg20
(dp41
sg37
I01
sg22
g15
((ltRp42
sg39
S'ttbar_QCD_NLO_4f_mg273-v4'
p43
sg25
Nsg38
S'crab_projects'
p44
sbsS'_internal_webapps'
p45
(lp46
sg31
g3
(g9
g5
NtRp47
(dp48
g12
I00
sg13
S''
sg14
g15
((ltRp49
sg19
g31
sg20
(dp50
sg22
g15
((ltRp51
sg25
NsbsS'_internal_components'
p52
(lp53
sg32
g3
(g9
g5
NtRp54
(dp55
g12
I00
sg13
S''
sg14
g15
((ltRp56
sg19
g32
sg20
(dp57
sg22
g15
((ltRp58
sg25
Nsbsg30
g3
(g9
g5
NtRp59
(dp60
S'outputDatasetTag'
p61
S'Generator_Negative_weight'
p62
sg12
I00
sS'unitsPerJob'
p63
I1000
sg13
S''
sg14
g15
((lp64
g61
aS'publication'
p65
ag63
aS'splitting'
p66
aS'outLFNDirBase'
p67
aS'outputPrimaryDataset'
p68
aS'totalUnits'
p69
atRp70
sg67
S'/store/user/sobarman/'
p71
sg19
g30
sg66
S'EventBased'
p72
sg20
(dp73
sg22
g15
((ltRp74
sg65
I00
sg68
S'ttbar_QCD_NLO_4f_mg273-v1'
p75
sg25
Nsg69
I2000
sbsg29
g3
(g9
g5
NtRp76
(dp77
g12
I00
sg13
S''
sg14
g15
((lp78
S'psetName'
p79
aS'pluginName'
p80
aS'inputFiles'
p81
atRp82
sg19
g29
sg20
(dp83
sg80
S'PrivateMC'
p84
sg22
g15
((ltRp85
sg79
S'../configs/Hadronizer_TuneCP5_13TeV_aMCatNLO_2p_LHE_pythia8_ttbar_QCD_NLO_4f_mg273_cfg.py'
p86
sg25
Nsg81
(lp87
S'/afs/cern.ch/work/s/sobarman/private/MC@NLO/Gridpack/ttbar_QCD_NLO_4f_mg273_slc7_amd64_gcc630_CMSSW_9_3_16_tarball.tar.xz'
p88
asbsbsS'voGroup'
p89
S''
sS'Server'
p90
S'cmsweb.cern.ch'
p91
sS'instance'
p92
S'prod'
p93
sS'RequestName'
p94
V200821_081149:sobarman_crab_ttbar_QCD_NLO_4f_mg273-v4
p95
sS'voRole'
p96
S'NULL'
p97
sS'Port'
p98
S''
s.